target datalayout = "e-m:e-p270:32:32-p271:32:32-p272:64:64-i64:64-i128:128-f80:128-n8:16:32:64-S128"
target triple = "x86_64-pc-linux-gnu"

%struct.hwloc_topology = type { i32, i32, i32, ptr, ptr, i64, [20 x i32], [20 x i32], i64, i64, i32, ptr, i64, ptr, i64, [6 x %struct.hwloc_special_level_s], ptr, ptr, %struct.hwloc_binding_hooks, %struct.hwloc_topology_support, %struct.hwloc_infos_s, ptr, ptr, i32, ptr, ptr, i32, i32, ptr, i32, i32, ptr, i32, i32, i32, [5 x float], i32, ptr, ptr, i32, i32, ptr, i32, %struct.hwloc_numanode_attr_s, i32, i32, ptr, i64, i32, ptr, ptr, ptr }
%struct.hwloc_special_level_s = type { i32, ptr, ptr, ptr }
%struct.hwloc_binding_hooks = type { ptr, ptr, ptr, ptr, ptr, ptr, ptr, ptr, ptr, ptr, ptr, ptr, ptr, ptr, ptr, ptr, ptr, ptr, ptr, ptr, ptr, ptr, ptr, ptr }
%struct.hwloc_topology_support = type { ptr, ptr, ptr, ptr }
%struct.hwloc_infos_s = type { ptr, i32, i32 }
%struct.hwloc_numanode_attr_s = type { i64, i32, ptr }
%struct.hwloc_obj = type { i32, ptr, i32, ptr, i64, ptr, i32, i32, ptr, ptr, ptr, i32, ptr, ptr, i32, ptr, ptr, ptr, i32, i32, ptr, i32, ptr, i32, ptr, ptr, ptr, ptr, ptr, %struct.hwloc_infos_s, ptr, i64 }

; Function Attrs: nounwind uwtable
define i32 @hwloc_topology_get_default_nodeset(ptr noundef %0, ptr noundef %1, i64 noundef %2) #0 {
  %4 = alloca i32, align 4
  %5 = alloca ptr, align 8
  %6 = alloca ptr, align 8
  %7 = alloca i64, align 8
  %8 = alloca ptr, align 8
  %9 = alloca ptr, align 8
  %10 = alloca i32, align 4
  %11 = alloca i32, align 4
  %12 = alloca ptr, align 8
  %13 = alloca i32, align 4
  store ptr %0, ptr %5, align 8, !tbaa !3
  store ptr %1, ptr %6, align 8, !tbaa !108
  store i64 %2, ptr %7, align 8, !tbaa !37
  call void @llvm.lifetime.start.p0(i64 8, ptr %8) #14
  call void @llvm.lifetime.start.p0(i64 8, ptr %9) #14
  call void @llvm.lifetime.start.p0(i64 4, ptr %10) #14
  call void @llvm.lifetime.start.p0(i64 4, ptr %11) #14
  call void @llvm.lifetime.start.p0(i64 8, ptr %12) #14
  %14 = load i64, ptr %7, align 8, !tbaa !37
  %15 = icmp ne i64 %14, 0
  br i1 %15, label %16, label %18

16:                                               ; preds = %3
  %17 = call ptr @__errno_location() #16
  store i32 22, ptr %17, align 4, !tbaa !45
  br label %226

18:                                               ; preds = %3
  %19 = load ptr, ptr %5, align 8, !tbaa !3
  %20 = getelementptr inbounds nuw %struct.hwloc_topology, ptr %19, i32 0, i32 4
  %21 = load ptr, ptr %20, align 8, !tbaa !113
  %22 = getelementptr inbounds ptr, ptr %21, i64 0
  %23 = load ptr, ptr %22, align 8, !tbaa !81
  %24 = getelementptr inbounds ptr, ptr %23, i64 0
  %25 = load ptr, ptr %24, align 8, !tbaa !83
  %26 = getelementptr inbounds nuw %struct.hwloc_obj, ptr %25, i32 0, i32 25
  %27 = load ptr, ptr %26, align 8, !tbaa !91
  %28 = call noalias ptr @hwloc_bitmap_dup(ptr noundef %27)
  store ptr %28, ptr %9, align 8, !tbaa !108
  %29 = load ptr, ptr %9, align 8, !tbaa !108
  %30 = icmp ne ptr %29, null
  br i1 %30, label %32, label %31

31:                                               ; preds = %18
  br label %226

32:                                               ; preds = %18
  %33 = load ptr, ptr %5, align 8, !tbaa !3
  %34 = getelementptr inbounds nuw %struct.hwloc_topology, ptr %33, i32 0, i32 15
  %35 = getelementptr inbounds [6 x %struct.hwloc_special_level_s], ptr %34, i64 0, i64 0
  %36 = getelementptr inbounds nuw %struct.hwloc_special_level_s, ptr %35, i32 0, i32 0
  %37 = load i32, ptr %36, align 8, !tbaa !114
  store i32 %37, ptr %10, align 4, !tbaa !45
  %38 = load i32, ptr %10, align 4, !tbaa !45
  %39 = zext i32 %38 to i64
  %40 = mul i64 %39, 8
  %41 = call noalias ptr @malloc(i64 noundef %40) #13
  store ptr %41, ptr %8, align 8, !tbaa !81
  %42 = load ptr, ptr %8, align 8, !tbaa !81
  %43 = icmp ne ptr %42, null
  br i1 %43, label %45, label %44

44:                                               ; preds = %32
  br label %224

45:                                               ; preds = %32
  %46 = load ptr, ptr %8, align 8, !tbaa !81
  %47 = load ptr, ptr %5, align 8, !tbaa !3
  %48 = getelementptr inbounds nuw %struct.hwloc_topology, ptr %47, i32 0, i32 15
  %49 = getelementptr inbounds [6 x %struct.hwloc_special_level_s], ptr %48, i64 0, i64 0
  %50 = getelementptr inbounds nuw %struct.hwloc_special_level_s, ptr %49, i32 0, i32 1
  %51 = load ptr, ptr %50, align 8, !tbaa !116
  %52 = load i32, ptr %10, align 4, !tbaa !45
  %53 = zext i32 %52 to i64
  %54 = mul i64 %53, 8
  call void @llvm.memcpy.p0.p0.i64(ptr align 8 %46, ptr align 8 %51, i64 %54, i1 false)
  %55 = load ptr, ptr %8, align 8, !tbaa !81
  %56 = load i32, ptr %10, align 4, !tbaa !45
  %57 = zext i32 %56 to i64
  call void @qsort(ptr noundef %55, i64 noundef %57, i64 noundef 8, ptr noundef @compare_nodes_by_os_index)
  %58 = load ptr, ptr %6, align 8, !tbaa !108
  call void @hwloc_bitmap_zero(ptr noundef %58)
  %59 = load ptr, ptr %8, align 8, !tbaa !81
  %60 = getelementptr inbounds ptr, ptr %59, i64 0
  %61 = load ptr, ptr %60, align 8, !tbaa !83
  %62 = getelementptr inbounds nuw %struct.hwloc_obj, ptr %61, i32 0, i32 1
  %63 = load ptr, ptr %62, align 8, !tbaa !117
  store ptr %63, ptr %12, align 8, !tbaa !35
  %64 = load ptr, ptr %6, align 8, !tbaa !108
  %65 = load ptr, ptr %8, align 8, !tbaa !81
  %66 = getelementptr inbounds ptr, ptr %65, i64 0
  %67 = load ptr, ptr %66, align 8, !tbaa !83
  %68 = getelementptr inbounds nuw %struct.hwloc_obj, ptr %67, i32 0, i32 2
  %69 = load i32, ptr %68, align 8, !tbaa !93
  %70 = call i32 @hwloc_bitmap_set(ptr noundef %64, i32 noundef %69)
  %71 = load ptr, ptr %9, align 8, !tbaa !108
  %72 = load ptr, ptr %9, align 8, !tbaa !108
  %73 = load ptr, ptr %8, align 8, !tbaa !81
  %74 = getelementptr inbounds ptr, ptr %73, i64 0
  %75 = load ptr, ptr %74, align 8, !tbaa !83
  %76 = getelementptr inbounds nuw %struct.hwloc_obj, ptr %75, i32 0, i32 25
  %77 = load ptr, ptr %76, align 8, !tbaa !91
  %78 = call i32 @hwloc_bitmap_andnot(ptr noundef %71, ptr noundef %72, ptr noundef %77)
  store i32 1, ptr %11, align 4, !tbaa !45
  br label %79

79:                                               ; preds = %156, %45
  %80 = load i32, ptr %11, align 4, !tbaa !45
  %81 = load i32, ptr %10, align 4, !tbaa !45
  %82 = icmp ult i32 %80, %81
  br i1 %82, label %83, label %159

83:                                               ; preds = %79
  %84 = load ptr, ptr %12, align 8, !tbaa !35
  %85 = icmp ne ptr %84, null
  br i1 %85, label %86, label %108

86:                                               ; preds = %83
  %87 = load ptr, ptr %8, align 8, !tbaa !81
  %88 = load i32, ptr %11, align 4, !tbaa !45
  %89 = zext i32 %88 to i64
  %90 = getelementptr inbounds nuw ptr, ptr %87, i64 %89
  %91 = load ptr, ptr %90, align 8, !tbaa !83
  %92 = getelementptr inbounds nuw %struct.hwloc_obj, ptr %91, i32 0, i32 1
  %93 = load ptr, ptr %92, align 8, !tbaa !117
  %94 = icmp ne ptr %93, null
  br i1 %94, label %95, label %106

95:                                               ; preds = %86
  %96 = load ptr, ptr %12, align 8, !tbaa !35
  %97 = load ptr, ptr %8, align 8, !tbaa !81
  %98 = load i32, ptr %11, align 4, !tbaa !45
  %99 = zext i32 %98 to i64
  %100 = getelementptr inbounds nuw ptr, ptr %97, i64 %99
  %101 = load ptr, ptr %100, align 8, !tbaa !83
  %102 = getelementptr inbounds nuw %struct.hwloc_obj, ptr %101, i32 0, i32 1
  %103 = load ptr, ptr %102, align 8, !tbaa !117
  %104 = call i32 @strcmp(ptr noundef %96, ptr noundef %103) #15
  %105 = icmp ne i32 %104, 0
  br i1 %105, label %106, label %107

106:                                              ; preds = %95, %86
  br label %156

107:                                              ; preds = %95
  br label %119

108:                                              ; preds = %83
  %109 = load ptr, ptr %8, align 8, !tbaa !81
  %110 = load i32, ptr %11, align 4, !tbaa !45
  %111 = zext i32 %110 to i64
  %112 = getelementptr inbounds nuw ptr, ptr %109, i64 %111
  %113 = load ptr, ptr %112, align 8, !tbaa !83
  %114 = getelementptr inbounds nuw %struct.hwloc_obj, ptr %113, i32 0, i32 1
  %115 = load ptr, ptr %114, align 8, !tbaa !117
  %116 = icmp ne ptr %115, null
  br i1 %116, label %117, label %118

117:                                              ; preds = %108
  br label %156

118:                                              ; preds = %108
  br label %119

119:                                              ; preds = %118, %107
  %120 = load ptr, ptr %8, align 8, !tbaa !81
  %121 = load i32, ptr %11, align 4, !tbaa !45
  %122 = zext i32 %121 to i64
  %123 = getelementptr inbounds nuw ptr, ptr %120, i64 %122
  %124 = load ptr, ptr %123, align 8, !tbaa !83
  %125 = getelementptr inbounds nuw %struct.hwloc_obj, ptr %124, i32 0, i32 25
  %126 = load ptr, ptr %125, align 8, !tbaa !91
  %127 = load ptr, ptr %9, align 8, !tbaa !108
  %128 = call i32 @hwloc_bitmap_isincluded(ptr noundef %126, ptr noundef %127) #15
  %129 = icmp ne i32 %128, 0
  br i1 %129, label %130, label %150

130:                                              ; preds = %119
  %131 = load ptr, ptr %6, align 8, !tbaa !108
  %132 = load ptr, ptr %8, align 8, !tbaa !81
  %133 = load i32, ptr %11, align 4, !tbaa !45
  %134 = zext i32 %133 to i64
  %135 = getelementptr inbounds nuw ptr, ptr %132, i64 %134
  %136 = load ptr, ptr %135, align 8, !tbaa !83
  %137 = getelementptr inbounds nuw %struct.hwloc_obj, ptr %136, i32 0, i32 2
  %138 = load i32, ptr %137, align 8, !tbaa !93
  %139 = call i32 @hwloc_bitmap_set(ptr noundef %131, i32 noundef %138)
  %140 = load ptr, ptr %9, align 8, !tbaa !108
  %141 = load ptr, ptr %9, align 8, !tbaa !108
  %142 = load ptr, ptr %8, align 8, !tbaa !81
  %143 = load i32, ptr %11, align 4, !tbaa !45
  %144 = zext i32 %143 to i64
  %145 = getelementptr inbounds nuw ptr, ptr %142, i64 %144
  %146 = load ptr, ptr %145, align 8, !tbaa !83
  %147 = getelementptr inbounds nuw %struct.hwloc_obj, ptr %146, i32 0, i32 25
  %148 = load ptr, ptr %147, align 8, !tbaa !91
  %149 = call i32 @hwloc_bitmap_andnot(ptr noundef %140, ptr noundef %141, ptr noundef %148)
  br label %150

150:                                              ; preds = %130, %119
  %151 = load ptr, ptr %9, align 8, !tbaa !108
  %152 = call i32 @hwloc_bitmap_iszero(ptr noundef %151) #15
  %153 = icmp ne i32 %152, 0
  br i1 %153, label %154, label %155

154:                                              ; preds = %150
  br label %221

155:                                              ; preds = %150
  br label %156

156:                                              ; preds = %155, %117, %106
  %157 = load i32, ptr %11, align 4, !tbaa !45
  %158 = add i32 %157, 1
  store i32 %158, ptr %11, align 4, !tbaa !45
  br label %79, !llvm.loop !118

159:                                              ; preds = %79
  store i32 1, ptr %11, align 4, !tbaa !45
  br label %160

160:                                              ; preds = %217, %159
  %161 = load i32, ptr %11, align 4, !tbaa !45
  %162 = load i32, ptr %10, align 4, !tbaa !45
  %163 = icmp ult i32 %161, %162
  br i1 %163, label %164, label %220

164:                                              ; preds = %160
  %165 = load ptr, ptr %6, align 8, !tbaa !108
  %166 = load i32, ptr %11, align 4, !tbaa !45
  %167 = call i32 @hwloc_bitmap_isset(ptr noundef %165, i32 noundef %166) #15
  %168 = icmp ne i32 %167, 0
  br i1 %168, label %169, label %170

169:                                              ; preds = %164
  br label %217

170:                                              ; preds = %164
  %171 = load ptr, ptr %8, align 8, !tbaa !81
  %172 = load i32, ptr %11, align 4, !tbaa !45
  %173 = zext i32 %172 to i64
  %174 = getelementptr inbounds nuw ptr, ptr %171, i64 %173
  %175 = load ptr, ptr %174, align 8, !tbaa !83
  %176 = getelementptr inbounds nuw %struct.hwloc_obj, ptr %175, i32 0, i32 25
  %177 = load ptr, ptr %176, align 8, !tbaa !91
  %178 = load ptr, ptr %9, align 8, !tbaa !108
  %179 = call i32 @hwloc_bitmap_isincluded(ptr noundef %177, ptr noundef %178) #15
  %180 = icmp ne i32 %179, 0
  br i1 %180, label %181, label %211

181:                                              ; preds = %170
  %182 = load ptr, ptr %8, align 8, !tbaa !81
  %183 = load i32, ptr %11, align 4, !tbaa !45
  %184 = zext i32 %183 to i64
  %185 = getelementptr inbounds nuw ptr, ptr %182, i64 %184
  %186 = load ptr, ptr %185, align 8, !tbaa !83
  %187 = getelementptr inbounds nuw %struct.hwloc_obj, ptr %186, i32 0, i32 25
  %188 = load ptr, ptr %187, align 8, !tbaa !91
  %189 = call i32 @hwloc_bitmap_iszero(ptr noundef %188) #15
  %190 = icmp ne i32 %189, 0
  br i1 %190, label %211, label %191

191:                                              ; preds = %181
  %192 = load ptr, ptr %6, align 8, !tbaa !108
  %193 = load ptr, ptr %8, align 8, !tbaa !81
  %194 = load i32, ptr %11, align 4, !tbaa !45
  %195 = zext i32 %194 to i64
  %196 = getelementptr inbounds nuw ptr, ptr %193, i64 %195
  %197 = load ptr, ptr %196, align 8, !tbaa !83
  %198 = getelementptr inbounds nuw %struct.hwloc_obj, ptr %197, i32 0, i32 2
  %199 = load i32, ptr %198, align 8, !tbaa !93
  %200 = call i32 @hwloc_bitmap_set(ptr noundef %192, i32 noundef %199)
  %201 = load ptr, ptr %9, align 8, !tbaa !108
  %202 = load ptr, ptr %9, align 8, !tbaa !108
  %203 = load ptr, ptr %8, align 8, !tbaa !81
  %204 = load i32, ptr %11, align 4, !tbaa !45
  %205 = zext i32 %204 to i64
  %206 = getelementptr inbounds nuw ptr, ptr %203, i64 %205
  %207 = load ptr, ptr %206, align 8, !tbaa !83
  %208 = getelementptr inbounds nuw %struct.hwloc_obj, ptr %207, i32 0, i32 25
  %209 = load ptr, ptr %208, align 8, !tbaa !91
  %210 = call i32 @hwloc_bitmap_andnot(ptr noundef %201, ptr noundef %202, ptr noundef %209)
  br label %211

211:                                              ; preds = %191, %181, %170
  %212 = load ptr, ptr %9, align 8, !tbaa !108
  %213 = call i32 @hwloc_bitmap_iszero(ptr noundef %212) #15
  %214 = icmp ne i32 %213, 0
  br i1 %214, label %215, label %216

215:                                              ; preds = %211
  br label %221

216:                                              ; preds = %211
  br label %217

217:                                              ; preds = %216, %169
  %218 = load i32, ptr %11, align 4, !tbaa !45
  %219 = add i32 %218, 1
  store i32 %219, ptr %11, align 4, !tbaa !45
  br label %160, !llvm.loop !119

220:                                              ; preds = %160
  br label %221

221:                                              ; preds = %220, %215, %154
  %222 = load ptr, ptr %8, align 8, !tbaa !81
  call void @free(ptr noundef %222) #14
  %223 = load ptr, ptr %9, align 8, !tbaa !108
  call void @hwloc_bitmap_free(ptr noundef %223)
  store i32 0, ptr %4, align 4
  store i32 1, ptr %13, align 4
  br label %227

224:                                              ; preds = %44
  %225 = load ptr, ptr %9, align 8, !tbaa !108
  call void @hwloc_bitmap_free(ptr noundef %225)
  br label %226

226:                                              ; preds = %224, %31, %16
  store i32 -1, ptr %4, align 4
  store i32 1, ptr %13, align 4
  br label %227

227:                                              ; preds = %226, %221
  call void @llvm.lifetime.end.p0(i64 8, ptr %12) #14
  call void @llvm.lifetime.end.p0(i64 4, ptr %11) #14
  call void @llvm.lifetime.end.p0(i64 4, ptr %10) #14
  call void @llvm.lifetime.end.p0(i64 8, ptr %9) #14
  call void @llvm.lifetime.end.p0(i64 8, ptr %8) #14
  %228 = load i32, ptr %4, align 4
  ret i32 %228
}