; Function Attrs: nounwind uwtable
define range(i32 -1, 1) i32 @hwloc_topology_get_default_nodeset(ptr noundef readonly captures(none) %0, ptr noundef %1, i64 noundef %2) local_unnamed_addr #3 {
  %.not = icmp eq i64 %2, 0
  br i1 %.not, label %6, label %4

4:                                                ; preds = %3
  %5 = tail call ptr @__errno_location() #31
  store i32 22, ptr %5, align 4, !tbaa !60
  br label %98

6:                                                ; preds = %3
  %7 = getelementptr inbounds nuw i8, ptr %0, i64 24
  %8 = load ptr, ptr %7, align 8, !tbaa !78
  %9 = load ptr, ptr %8, align 8, !tbaa !79
  %10 = load ptr, ptr %9, align 8, !tbaa !80
  %11 = getelementptr inbounds nuw i8, ptr %10, i64 184
  %12 = load ptr, ptr %11, align 8, !tbaa !81
  %13 = tail call noalias ptr @hwloc_bitmap_dup(ptr noundef %12) #29
  %.not67 = icmp eq ptr %13, null
  br i1 %.not67, label %98, label %14

14:                                               ; preds = %6
  %15 = getelementptr inbounds nuw i8, ptr %0, i64 256
  %16 = load i32, ptr %15, align 8, !tbaa !101
  %17 = zext i32 %16 to i64
  %18 = shl nuw nsw i64 %17, 3
  %19 = tail call noalias ptr @malloc(i64 noundef %18) #28
  %.not68 = icmp eq ptr %19, null
  br i1 %.not68, label %97, label %20

20:                                               ; preds = %14
  %21 = getelementptr inbounds nuw i8, ptr %0, i64 264
  %22 = load ptr, ptr %21, align 8, !tbaa !103
  tail call void @llvm.memcpy.p0.p0.i64(ptr nonnull align 8 %19, ptr align 8 %22, i64 %18, i1 false)
  tail call void @qsort(ptr noundef nonnull %19, i64 noundef %17, i64 noundef 8, ptr noundef nonnull @compare_nodes_by_os_index) #29
  tail call void @hwloc_bitmap_zero(ptr noundef %1) #29
  %23 = load ptr, ptr %19, align 8, !tbaa !80
  %24 = getelementptr inbounds nuw i8, ptr %23, i64 8
  %25 = load ptr, ptr %24, align 8, !tbaa !104
  %26 = getelementptr inbounds nuw i8, ptr %23, i64 16
  %27 = load i32, ptr %26, align 8, !tbaa !74
  %28 = tail call i32 @hwloc_bitmap_set(ptr noundef %1, i32 noundef %27) #29
  %29 = load ptr, ptr %19, align 8, !tbaa !80
  %30 = getelementptr inbounds nuw i8, ptr %29, i64 184
  %31 = load ptr, ptr %30, align 8, !tbaa !81
  %32 = tail call i32 @hwloc_bitmap_andnot(ptr noundef nonnull %13, ptr noundef nonnull %13, ptr noundef %31) #29
  %33 = icmp ugt i32 %16, 1
  br i1 %33, label %.lr.ph, label %.loopexit

.lr.ph:                                           ; preds = %20
  %.not73 = icmp eq ptr %25, null
  br i1 %.not73, label %.lr.ph.split.us, label %.lr.ph.split

.lr.ph.split.us:                                  ; preds = %.lr.ph, %52
  %indvars.iv89 = phi i64 [ %indvars.iv.next90, %52 ], [ 1, %.lr.ph ]
  %34 = getelementptr inbounds nuw ptr, ptr %19, i64 %indvars.iv89
  %35 = load ptr, ptr %34, align 8, !tbaa !80
  %36 = getelementptr inbounds nuw i8, ptr %35, i64 8
  %37 = load ptr, ptr %36, align 8, !tbaa !104
  %.not74.us = icmp eq ptr %37, null
  br i1 %.not74.us, label %38, label %52

38:                                               ; preds = %.lr.ph.split.us
  %39 = getelementptr inbounds nuw i8, ptr %35, i64 184
  %40 = load ptr, ptr %39, align 8, !tbaa !81
  %41 = tail call i32 @hwloc_bitmap_isincluded(ptr noundef %40, ptr noundef nonnull %13) #30
  %.not77.us = icmp eq i32 %41, 0
  br i1 %.not77.us, label %50, label %42

42:                                               ; preds = %38
  %43 = getelementptr inbounds nuw i8, ptr %35, i64 16
  %44 = load i32, ptr %43, align 8, !tbaa !74
  %45 = tail call i32 @hwloc_bitmap_set(ptr noundef %1, i32 noundef %44) #29
  %46 = load ptr, ptr %34, align 8, !tbaa !80
  %47 = getelementptr inbounds nuw i8, ptr %46, i64 184
  %48 = load ptr, ptr %47, align 8, !tbaa !81
  %49 = tail call i32 @hwloc_bitmap_andnot(ptr noundef nonnull %13, ptr noundef nonnull %13, ptr noundef %48) #29
  br label %50

50:                                               ; preds = %42, %38
  %51 = tail call i32 @hwloc_bitmap_iszero(ptr noundef nonnull %13) #30
  %.not78.us = icmp eq i32 %51, 0
  br i1 %.not78.us, label %52, label %.loopexit

52:                                               ; preds = %50, %.lr.ph.split.us
  %indvars.iv.next90 = add nuw nsw i64 %indvars.iv89, 1
  %exitcond93.not = icmp eq i64 %indvars.iv.next90, %17
  br i1 %exitcond93.not, label %.lr.ph82.preheader, label %.lr.ph.split.us, !llvm.loop !105

.lr.ph.split:                                     ; preds = %.lr.ph, %73
  %indvars.iv = phi i64 [ %indvars.iv.next, %73 ], [ 1, %.lr.ph ]
  %53 = getelementptr inbounds nuw ptr, ptr %19, i64 %indvars.iv
  %54 = load ptr, ptr %53, align 8, !tbaa !80
  %55 = getelementptr inbounds nuw i8, ptr %54, i64 8
  %56 = load ptr, ptr %55, align 8, !tbaa !104
  %.not75 = icmp eq ptr %56, null
  br i1 %.not75, label %73, label %57

57:                                               ; preds = %.lr.ph.split
  %58 = tail call i32 @strcmp(ptr noundef nonnull dereferenceable(1) %25, ptr noundef nonnull dereferenceable(1) %56) #30
  %.not76 = icmp eq i32 %58, 0
  br i1 %.not76, label %59, label %73

59:                                               ; preds = %57
  %60 = getelementptr inbounds nuw i8, ptr %54, i64 184
  %61 = load ptr, ptr %60, align 8, !tbaa !81
  %62 = tail call i32 @hwloc_bitmap_isincluded(ptr noundef %61, ptr noundef nonnull %13) #30
  %.not77 = icmp eq i32 %62, 0
  br i1 %.not77, label %71, label %63

63:                                               ; preds = %59
  %64 = getelementptr inbounds nuw i8, ptr %54, i64 16
  %65 = load i32, ptr %64, align 8, !tbaa !74
  %66 = tail call i32 @hwloc_bitmap_set(ptr noundef %1, i32 noundef %65) #29
  %67 = load ptr, ptr %53, align 8, !tbaa !80
  %68 = getelementptr inbounds nuw i8, ptr %67, i64 184
  %69 = load ptr, ptr %68, align 8, !tbaa !81
  %70 = tail call i32 @hwloc_bitmap_andnot(ptr noundef nonnull %13, ptr noundef nonnull %13, ptr noundef %69) #29
  br label %71

71:                                               ; preds = %63, %59
  %72 = tail call i32 @hwloc_bitmap_iszero(ptr noundef nonnull %13) #30
  %.not78 = icmp eq i32 %72, 0
  br i1 %.not78, label %73, label %.loopexit

73:                                               ; preds = %71, %.lr.ph.split, %57
  %indvars.iv.next = add nuw nsw i64 %indvars.iv, 1
  %exitcond.not = icmp eq i64 %indvars.iv.next, %17
  br i1 %exitcond.not, label %.lr.ph82.preheader, label %.lr.ph.split, !llvm.loop !105

.lr.ph82.preheader:                               ; preds = %73, %52
  br label %.lr.ph82

.lr.ph82:                                         ; preds = %.lr.ph82.backedge, %.lr.ph82.preheader
  %.181 = phi i32 [ 1, %.lr.ph82.preheader ], [ %.181.be, %.lr.ph82.backedge ]
  %74 = tail call i32 @hwloc_bitmap_isset(ptr noundef %1, i32 noundef %.181) #30
  %.not69 = icmp eq i32 %74, 0
  br i1 %.not69, label %75, label %96

75:                                               ; preds = %.lr.ph82
  %76 = zext i32 %.181 to i64
  %77 = getelementptr inbounds nuw ptr, ptr %19, i64 %76
  %78 = load ptr, ptr %77, align 8, !tbaa !80
  %79 = getelementptr inbounds nuw i8, ptr %78, i64 184
  %80 = load ptr, ptr %79, align 8, !tbaa !81
  %81 = tail call i32 @hwloc_bitmap_isincluded(ptr noundef %80, ptr noundef nonnull %13) #30
  %.not70 = icmp eq i32 %81, 0
  br i1 %.not70, label %92, label %82

82:                                               ; preds = %75
  %83 = tail call i32 @hwloc_bitmap_iszero(ptr noundef %80) #30
  %.not71 = icmp eq i32 %83, 0
  br i1 %.not71, label %84, label %92

84:                                               ; preds = %82
  %85 = getelementptr inbounds nuw i8, ptr %78, i64 16
  %86 = load i32, ptr %85, align 8, !tbaa !74
  %87 = tail call i32 @hwloc_bitmap_set(ptr noundef %1, i32 noundef %86) #29
  %88 = load ptr, ptr %77, align 8, !tbaa !80
  %89 = getelementptr inbounds nuw i8, ptr %88, i64 184
  %90 = load ptr, ptr %89, align 8, !tbaa !81
  %91 = tail call i32 @hwloc_bitmap_andnot(ptr noundef nonnull %13, ptr noundef nonnull %13, ptr noundef %90) #29
  br label %92

92:                                               ; preds = %84, %82, %75
  %93 = tail call i32 @hwloc_bitmap_iszero(ptr noundef nonnull %13) #30
  %.not72 = icmp eq i32 %93, 0
  %94 = add nuw i32 %.181, 1
  %95 = icmp ult i32 %94, %16
  %or.cond = select i1 %.not72, i1 %95, i1 false
  br i1 %or.cond, label %.lr.ph82.backedge, label %.loopexit

96:                                               ; preds = %.lr.ph82
  %.old = add nuw i32 %.181, 1
  %.old84 = icmp ult i32 %.old, %16
  br i1 %.old84, label %.lr.ph82.backedge, label %.loopexit

.lr.ph82.backedge:                                ; preds = %96, %92
  %.181.be = phi i32 [ %.old, %96 ], [ %94, %92 ]
  br label %.lr.ph82, !llvm.loop !106

.loopexit:                                        ; preds = %71, %50, %92, %96, %20
  tail call void @free(ptr noundef %19) #29
  tail call void @hwloc_bitmap_free(ptr noundef nonnull %13) #29
  br label %98

97:                                               ; preds = %14
  tail call void @hwloc_bitmap_free(ptr noundef nonnull %13) #29
  br label %98

98:                                               ; preds = %4, %97, %6, %.loopexit
  %.0 = phi i32 [ 0, %.loopexit ], [ -1, %6 ], [ -1, %97 ], [ -1, %4 ]
  ret i32 %.0
}